target datalayout = "e-m:e-p270:32:32-p271:32:32-p272:64:64-i64:64-i128:128-f80:128-n8:16:32:64-S128"
target triple = "x86_64-pc-linux-gnu"

%struct.jpeg_compress_struct = type { ptr, ptr, ptr, ptr, i32, i32, ptr, i32, i32, i32, i32, double, i32, i32, i32, ptr, [4 x ptr], [4 x ptr], [4 x ptr], [16 x i8], [16 x i8], [16 x i8], i32, ptr, i32, i32, i32, i32, i32, i32, i32, i32, i32, i8, i8, i8, i16, i16, i32, i32, i32, i32, i32, i32, i32, [4 x ptr], i32, i32, i32, [10 x i32], i32, i32, i32, i32, ptr, ptr, ptr, ptr, ptr, ptr, ptr, ptr, ptr, ptr, i32 }
%struct.jpeg_component_info = type { i32, i32, i32, i32, i32, i32, i32, i32, i32, i32, i32, i32, i32, i32, i32, i32, i32, i32, i32, ptr, ptr }
%struct.jpeg_comp_master = type { ptr, ptr, ptr, i32, i32, i32 }

; Function Attrs: nounwind uwtable
define internal void @expand_right_edge(ptr noundef %0, i32 noundef %1, i32 noundef %2, i32 noundef %3) #0 {
  %5 = alloca ptr, align 8
  %6 = alloca i32, align 4
  %7 = alloca i32, align 4
  %8 = alloca i32, align 4
  %9 = alloca ptr, align 8
  %10 = alloca i8, align 1
  %11 = alloca i32, align 4
  %12 = alloca i32, align 4
  %13 = alloca i32, align 4
  store ptr %0, ptr %5, align 8
  store i32 %1, ptr %6, align 4
  store i32 %2, ptr %7, align 4
  store i32 %3, ptr %8, align 4
  %14 = load i32, ptr %8, align 4
  %15 = load i32, ptr %7, align 4
  %16 = sub i32 %14, %15
  store i32 %16, ptr %13, align 4
  %17 = load i32, ptr %13, align 4
  %18 = icmp sgt i32 %17, 0
  br i1 %18, label %19, label %52

19:                                               ; preds = %4
  store i32 0, ptr %12, align 4
  br label %20

20:                                               ; preds = %48, %19
  %21 = load i32, ptr %12, align 4
  %22 = load i32, ptr %6, align 4
  %23 = icmp slt i32 %21, %22
  br i1 %23, label %24, label %51

24:                                               ; preds = %20
  %25 = load ptr, ptr %5, align 8
  %26 = load i32, ptr %12, align 4
  %27 = sext i32 %26 to i64
  %28 = getelementptr inbounds ptr, ptr %25, i64 %27
  %29 = load ptr, ptr %28, align 8
  %30 = load i32, ptr %7, align 4
  %31 = zext i32 %30 to i64
  %32 = getelementptr inbounds i8, ptr %29, i64 %31
  store ptr %32, ptr %9, align 8
  %33 = load ptr, ptr %9, align 8
  %34 = getelementptr inbounds i8, ptr %33, i64 -1
  %35 = load i8, ptr %34, align 1
  store i8 %35, ptr %10, align 1
  %36 = load i32, ptr %13, align 4
  store i32 %36, ptr %11, align 4
  br label %37

37:                                               ; preds = %44, %24
  %38 = load i32, ptr %11, align 4
  %39 = icmp sgt i32 %38, 0
  br i1 %39, label %40, label %47

40:                                               ; preds = %37
  %41 = load i8, ptr %10, align 1
  %42 = load ptr, ptr %9, align 8
  %43 = getelementptr inbounds i8, ptr %42, i32 1
  store ptr %43, ptr %9, align 8
  store i8 %41, ptr %42, align 1
  br label %44

44:                                               ; preds = %40
  %45 = load i32, ptr %11, align 4
  %46 = add nsw i32 %45, -1
  store i32 %46, ptr %11, align 4
  br label %37, !llvm.loop !19

47:                                               ; preds = %37
  br label %48

48:                                               ; preds = %47
  %49 = load i32, ptr %12, align 4
  %50 = add nsw i32 %49, 1
  store i32 %50, ptr %12, align 4
  br label %20, !llvm.loop !20

51:                                               ; preds = %20
  br label %52

52:                                               ; preds = %51, %4
  ret void
}

; Function Attrs: nounwind uwtable
define internal void @h2v2_downsample(ptr noundef %0, ptr noundef %1, ptr noundef %2, ptr noundef %3) #0 {
  %5 = alloca ptr, align 8
  %6 = alloca ptr, align 8
  %7 = alloca ptr, align 8
  %8 = alloca ptr, align 8
  %9 = alloca i32, align 4
  %10 = alloca i32, align 4
  %11 = alloca i32, align 4
  %12 = alloca i32, align 4
  %13 = alloca i32, align 4
  %14 = alloca ptr, align 8
  %15 = alloca ptr, align 8
  %16 = alloca ptr, align 8
  %17 = alloca i32, align 4
  store ptr %0, ptr %5, align 8
  store ptr %1, ptr %6, align 8
  store ptr %2, ptr %7, align 8
  store ptr %3, ptr %8, align 8
  %18 = load ptr, ptr %5, align 8
  %19 = getelementptr inbounds %struct.jpeg_compress_struct, ptr %18, i32 0, i32 54
  %20 = load ptr, ptr %19, align 8
  %21 = getelementptr inbounds %struct.jpeg_comp_master, ptr %20, i32 0, i32 5
  %22 = load i32, ptr %21, align 8
  %23 = icmp ne i32 %22, 0
  %24 = select i1 %23, i32 1, i32 8
  store i32 %24, ptr %12, align 4
  %25 = load ptr, ptr %6, align 8
  %26 = getelementptr inbounds %struct.jpeg_component_info, ptr %25, i32 0, i32 7
  %27 = load i32, ptr %26, align 4
  %28 = load i32, ptr %12, align 4
  %29 = mul i32 %27, %28
  store i32 %29, ptr %13, align 4
  %30 = load ptr, ptr %7, align 8
  %31 = load ptr, ptr %5, align 8
  %32 = getelementptr inbounds %struct.jpeg_compress_struct, ptr %31, i32 0, i32 42
  %33 = load i32, ptr %32, align 4
  %34 = load ptr, ptr %5, align 8
  %35 = getelementptr inbounds %struct.jpeg_compress_struct, ptr %34, i32 0, i32 7
  %36 = load i32, ptr %35, align 8
  %37 = load i32, ptr %13, align 4
  %38 = mul i32 %37, 2
  call void @expand_right_edge(ptr noundef %30, i32 noundef %33, i32 noundef %36, i32 noundef %38)
  store i32 0, ptr %9, align 4
  store i32 0, ptr %10, align 4
  br label %39

39:                                               ; preds = %104, %4
  %40 = load i32, ptr %10, align 4
  %41 = load ptr, ptr %6, align 8
  %42 = getelementptr inbounds %struct.jpeg_component_info, ptr %41, i32 0, i32 3
  %43 = load i32, ptr %42, align 4
  %44 = icmp slt i32 %40, %43
  br i1 %44, label %45, label %107

45:                                               ; preds = %39
  %46 = load ptr, ptr %8, align 8
  %47 = load i32, ptr %10, align 4
  %48 = sext i32 %47 to i64
  %49 = getelementptr inbounds ptr, ptr %46, i64 %48
  %50 = load ptr, ptr %49, align 8
  store ptr %50, ptr %16, align 8
  %51 = load ptr, ptr %7, align 8
  %52 = load i32, ptr %9, align 4
  %53 = sext i32 %52 to i64
  %54 = getelementptr inbounds ptr, ptr %51, i64 %53
  %55 = load ptr, ptr %54, align 8
  store ptr %55, ptr %14, align 8
  %56 = load ptr, ptr %7, align 8
  %57 = load i32, ptr %9, align 4
  %58 = add nsw i32 %57, 1
  %59 = sext i32 %58 to i64
  %60 = getelementptr inbounds ptr, ptr %56, i64 %59
  %61 = load ptr, ptr %60, align 8
  store ptr %61, ptr %15, align 8
  store i32 1, ptr %17, align 4
  store i32 0, ptr %11, align 4
  br label %62

62:                                               ; preds = %98, %45
  %63 = load i32, ptr %11, align 4
  %64 = load i32, ptr %13, align 4
  %65 = icmp ult i32 %63, %64
  br i1 %65, label %66, label %101

66:                                               ; preds = %62
  %67 = load ptr, ptr %14, align 8
  %68 = getelementptr inbounds i8, ptr %67, i64 0
  %69 = load i8, ptr %68, align 1
  %70 = zext i8 %69 to i32
  %71 = load ptr, ptr %14, align 8
  %72 = getelementptr inbounds i8, ptr %71, i64 1
  %73 = load i8, ptr %72, align 1
  %74 = zext i8 %73 to i32
  %75 = add nsw i32 %70, %74
  %76 = load ptr, ptr %15, align 8
  %77 = getelementptr inbounds i8, ptr %76, i64 0
  %78 = load i8, ptr %77, align 1
  %79 = zext i8 %78 to i32
  %80 = add nsw i32 %75, %79
  %81 = load ptr, ptr %15, align 8
  %82 = getelementptr inbounds i8, ptr %81, i64 1
  %83 = load i8, ptr %82, align 1
  %84 = zext i8 %83 to i32
  %85 = add nsw i32 %80, %84
  %86 = load i32, ptr %17, align 4
  %87 = add nsw i32 %85, %86
  %88 = ashr i32 %87, 2
  %89 = trunc i32 %88 to i8
  %90 = load ptr, ptr %16, align 8
  %91 = getelementptr inbounds i8, ptr %90, i32 1
  store ptr %91, ptr %16, align 8
  store i8 %89, ptr %90, align 1
  %92 = load i32, ptr %17, align 4
  %93 = xor i32 %92, 3
  store i32 %93, ptr %17, align 4
  %94 = load ptr, ptr %14, align 8
  %95 = getelementptr inbounds i8, ptr %94, i64 2
  store ptr %95, ptr %14, align 8
  %96 = load ptr, ptr %15, align 8
  %97 = getelementptr inbounds i8, ptr %96, i64 2
  store ptr %97, ptr %15, align 8
  br label %98

98:                                               ; preds = %66
  %99 = load i32, ptr %11, align 4
  %100 = add i32 %99, 1
  store i32 %100, ptr %11, align 4
  br label %62, !llvm.loop !13

101:                                              ; preds = %62
  %102 = load i32, ptr %9, align 4
  %103 = add nsw i32 %102, 2
  store i32 %103, ptr %9, align 4
  br label %104

104:                                              ; preds = %101
  %105 = load i32, ptr %10, align 4
  %106 = add nsw i32 %105, 1
  store i32 %106, ptr %10, align 4
  br label %39, !llvm.loop !14

107:                                              ; preds = %39
  ret void
}