; Function Attrs: nofree norecurse nosync nounwind memory(readwrite, inaccessiblemem: none) uwtable
define internal void @h2v2_downsample(ptr nocapture noundef readonly %0, ptr nocapture noundef readonly %1, ptr nocapture noundef readonly %2, ptr nocapture noundef readonly %3) #2 {
  %5 = getelementptr inbounds i8, ptr %0, i64 432
  %6 = load ptr, ptr %5, align 8
  %7 = getelementptr inbounds i8, ptr %6, i64 32
  %8 = load i32, ptr %7, align 8
  %.not = icmp eq i32 %8, 0
  %9 = getelementptr inbounds i8, ptr %1, i64 28
  %10 = load i32, ptr %9, align 4
  %11 = select i1 %.not, i32 3, i32 0
  %12 = shl i32 %10, %11
  %13 = getelementptr inbounds i8, ptr %0, i64 316
  %14 = load i32, ptr %13, align 4
  %15 = getelementptr inbounds i8, ptr %0, i64 48
  %16 = load i32, ptr %15, align 8
  %17 = shl i32 %12, 1
  %18 = sub i32 %17, %16
  %19 = icmp sgt i32 %18, 0
  %20 = icmp sgt i32 %14, 0
  %or.cond.i = and i1 %20, %19
  br i1 %or.cond.i, label %.lr.ph20.i, label %expand_right_edge.exit

.lr.ph20.i:                                       ; preds = %4
  %21 = zext i32 %16 to i64
  %22 = xor i32 %16, -1
  %23 = add i32 %17, %22
  %24 = zext i32 %23 to i64
  %25 = add nuw nsw i64 %24, 1
  %wide.trip.count.i = zext nneg i32 %14 to i64
  br label %.lr.ph.us.i

.lr.ph.us.i:                                      ; preds = %.lr.ph.us.i, %.lr.ph20.i
  %indvars.iv.i = phi i64 [ 0, %.lr.ph20.i ], [ %indvars.iv.next.i, %.lr.ph.us.i ]
  %26 = getelementptr inbounds ptr, ptr %2, i64 %indvars.iv.i
  %27 = load ptr, ptr %26, align 8
  %28 = getelementptr inbounds i8, ptr %27, i64 %21
  %29 = getelementptr inbounds i8, ptr %28, i64 -1
  %30 = load i8, ptr %29, align 1
  tail call void @llvm.memset.p0.i64(ptr noundef nonnull align 1 dereferenceable(1) %28, i8 %30, i64 %25, i1 false)
  %indvars.iv.next.i = add nuw nsw i64 %indvars.iv.i, 1
  %exitcond.not.i = icmp eq i64 %indvars.iv.next.i, %wide.trip.count.i
  br i1 %exitcond.not.i, label %expand_right_edge.exit, label %.lr.ph.us.i, !llvm.loop !7

expand_right_edge.exit:                           ; preds = %.lr.ph.us.i, %4
  %31 = getelementptr inbounds i8, ptr %1, i64 12
  %32 = load i32, ptr %31, align 4
  %33 = icmp slt i32 %32, 1
  %.not43 = icmp eq i32 %12, 0
  %or.cond = or i1 %33, %.not43
  br i1 %or.cond, label %._crit_edge42, label %.lr.ph.us

.lr.ph.us:                                        ; preds = %expand_right_edge.exit, %._crit_edge.us
  %indvars.iv45 = phi i64 [ %indvars.iv.next46, %._crit_edge.us ], [ 0, %expand_right_edge.exit ]
  %indvars.iv = phi i64 [ %indvars.iv.next, %._crit_edge.us ], [ 0, %expand_right_edge.exit ]
  %34 = getelementptr inbounds ptr, ptr %3, i64 %indvars.iv45
  %35 = load ptr, ptr %34, align 8
  %36 = getelementptr inbounds ptr, ptr %2, i64 %indvars.iv
  %37 = load ptr, ptr %36, align 8
  %38 = or disjoint i64 %indvars.iv, 1
  %39 = getelementptr inbounds ptr, ptr %2, i64 %38
  %40 = load ptr, ptr %39, align 8
  br label %41

41:                                               ; preds = %.lr.ph.us, %41
  %.038.us = phi i32 [ 1, %.lr.ph.us ], [ %59, %41 ]
  %.02837.us = phi ptr [ %35, %.lr.ph.us ], [ %58, %41 ]
  %.02936.us = phi ptr [ %40, %.lr.ph.us ], [ %61, %41 ]
  %.03035.us = phi ptr [ %37, %.lr.ph.us ], [ %60, %41 ]
  %.03334.us = phi i32 [ 0, %.lr.ph.us ], [ %62, %41 ]
  %42 = load i8, ptr %.03035.us, align 1
  %43 = zext i8 %42 to i32
  %44 = getelementptr inbounds i8, ptr %.03035.us, i64 1
  %45 = load i8, ptr %44, align 1
  %46 = zext i8 %45 to i32
  %47 = load i8, ptr %.02936.us, align 1
  %48 = zext i8 %47 to i32
  %49 = getelementptr inbounds i8, ptr %.02936.us, i64 1
  %50 = load i8, ptr %49, align 1
  %51 = zext i8 %50 to i32
  %52 = add nuw nsw i32 %.038.us, %43
  %53 = add nuw nsw i32 %52, %46
  %54 = add nuw nsw i32 %53, %48
  %55 = add nuw nsw i32 %54, %51
  %56 = lshr i32 %55, 2
  %57 = trunc nuw i32 %56 to i8
  %58 = getelementptr inbounds i8, ptr %.02837.us, i64 1
  store i8 %57, ptr %.02837.us, align 1
  %59 = xor i32 %.038.us, 3
  %60 = getelementptr inbounds i8, ptr %.03035.us, i64 2
  %61 = getelementptr inbounds i8, ptr %.02936.us, i64 2
  %62 = add nuw i32 %.03334.us, 1
  %exitcond.not = icmp eq i32 %62, %12
  br i1 %exitcond.not, label %._crit_edge.us, label %41, !llvm.loop !14

._crit_edge.us:                                   ; preds = %41
  %indvars.iv.next = add nuw nsw i64 %indvars.iv, 2
  %indvars.iv.next46 = add nuw nsw i64 %indvars.iv45, 1
  %63 = load i32, ptr %31, align 4
  %64 = sext i32 %63 to i64
  %65 = icmp slt i64 %indvars.iv.next46, %64
  br i1 %65, label %.lr.ph.us, label %._crit_edge42, !llvm.loop !15

._crit_edge42:                                    ; preds = %._crit_edge.us, %expand_right_edge.exit
  ret void
}